target datalayout = "e-m:e-p270:32:32-p271:32:32-p272:64:64-i64:64-i128:128-f80:128-n8:16:32:64-S128"
target triple = "x86_64-pc-linux-gnu"

%"class.OpenSubdiv::v3_6_0::Vtr::internal::Refinement" = type { ptr, ptr, ptr, %"class.OpenSubdiv::v3_6_0::Sdc::Options", i32, i32, i8, i8, i32, i32, i32, i32, i32, i32, i32, i32, i32, i32, i32, i32, %"class.OpenSubdiv::v3_6_0::Vtr::Array", %"class.OpenSubdiv::v3_6_0::Vtr::Array", %"class.std::vector", %"class.std::vector", %"class.std::vector", %"class.std::vector", %"class.std::vector", %"class.std::vector", %"class.std::vector", %"class.std::vector", %"class.std::vector", %"class.std::vector.0", %"class.std::vector.0", %"class.std::vector.0", %"class.std::vector.5", %"class.std::vector.5", %"class.std::vector.5", %"class.std::vector.10" }
%"class.OpenSubdiv::v3_6_0::Sdc::Options" = type { i8, i8, i8, i8 }
%"class.OpenSubdiv::v3_6_0::Vtr::Array" = type { %"class.OpenSubdiv::v3_6_0::Vtr::ConstArray.base", [4 x i8] }
%"class.OpenSubdiv::v3_6_0::Vtr::ConstArray.base" = type <{ ptr, i32 }>
%"class.std::vector" = type { %"struct.std::_Vector_base" }
%"struct.std::_Vector_base" = type { %"struct.std::_Vector_base<int, std::allocator<int>>::_Vector_impl" }
%"struct.std::_Vector_base<int, std::allocator<int>>::_Vector_impl" = type { %"struct.std::_Vector_base<int, std::allocator<int>>::_Vector_impl_data" }
%"struct.std::_Vector_base<int, std::allocator<int>>::_Vector_impl_data" = type { ptr, ptr, ptr }
%"class.std::vector.0" = type { %"struct.std::_Vector_base.1" }
%"struct.std::_Vector_base.1" = type { %"struct.std::_Vector_base<OpenSubdiv::v3_6_0::Vtr::internal::Refinement::ChildTag, std::allocator<OpenSubdiv::v3_6_0::Vtr::internal::Refinement::ChildTag>>::_Vector_impl" }
%"struct.std::_Vector_base<OpenSubdiv::v3_6_0::Vtr::internal::Refinement::ChildTag, std::allocator<OpenSubdiv::v3_6_0::Vtr::internal::Refinement::ChildTag>>::_Vector_impl" = type { %"struct.std::_Vector_base<OpenSubdiv::v3_6_0::Vtr::internal::Refinement::ChildTag, std::allocator<OpenSubdiv::v3_6_0::Vtr::internal::Refinement::ChildTag>>::_Vector_impl_data" }
%"struct.std::_Vector_base<OpenSubdiv::v3_6_0::Vtr::internal::Refinement::ChildTag, std::allocator<OpenSubdiv::v3_6_0::Vtr::internal::Refinement::ChildTag>>::_Vector_impl_data" = type { ptr, ptr, ptr }
%"class.std::vector.5" = type { %"struct.std::_Vector_base.6" }
%"struct.std::_Vector_base.6" = type { %"struct.std::_Vector_base<OpenSubdiv::v3_6_0::Vtr::internal::Refinement::SparseTag, std::allocator<OpenSubdiv::v3_6_0::Vtr::internal::Refinement::SparseTag>>::_Vector_impl" }
%"struct.std::_Vector_base<OpenSubdiv::v3_6_0::Vtr::internal::Refinement::SparseTag, std::allocator<OpenSubdiv::v3_6_0::Vtr::internal::Refinement::SparseTag>>::_Vector_impl" = type { %"struct.std::_Vector_base<OpenSubdiv::v3_6_0::Vtr::internal::Refinement::SparseTag, std::allocator<OpenSubdiv::v3_6_0::Vtr::internal::Refinement::SparseTag>>::_Vector_impl_data" }
%"struct.std::_Vector_base<OpenSubdiv::v3_6_0::Vtr::internal::Refinement::SparseTag, std::allocator<OpenSubdiv::v3_6_0::Vtr::internal::Refinement::SparseTag>>::_Vector_impl_data" = type { ptr, ptr, ptr }
%"class.std::vector.10" = type { %"struct.std::_Vector_base.11" }
%"struct.std::_Vector_base.11" = type { %"struct.std::_Vector_base<OpenSubdiv::v3_6_0::Vtr::internal::FVarRefinement *, std::allocator<OpenSubdiv::v3_6_0::Vtr::internal::FVarRefinement *>>::_Vector_impl" }
%"struct.std::_Vector_base<OpenSubdiv::v3_6_0::Vtr::internal::FVarRefinement *, std::allocator<OpenSubdiv::v3_6_0::Vtr::internal::FVarRefinement *>>::_Vector_impl" = type { %"struct.std::_Vector_base<OpenSubdiv::v3_6_0::Vtr::internal::FVarRefinement *, std::allocator<OpenSubdiv::v3_6_0::Vtr::internal::FVarRefinement *>>::_Vector_impl_data" }
%"struct.std::_Vector_base<OpenSubdiv::v3_6_0::Vtr::internal::FVarRefinement *, std::allocator<OpenSubdiv::v3_6_0::Vtr::internal::FVarRefinement *>>::_Vector_impl_data" = type { ptr, ptr, ptr }
%"class.OpenSubdiv::v3_6_0::Vtr::internal::Level" = type { i32, i32, i32, i32, i32, i32, %"class.std::vector", %"class.std::vector", %"class.std::vector", %"class.std::vector.15", %"class.std::vector", %"class.std::vector", %"class.std::vector", %"class.std::vector.20", %"class.std::vector.25", %"class.std::vector.30", %"class.std::vector", %"class.std::vector", %"class.std::vector.20", %"class.std::vector", %"class.std::vector", %"class.std::vector.20", %"class.std::vector.25", %"class.std::vector.35", %"class.std::vector.40" }
%"class.std::vector.15" = type { %"struct.std::_Vector_base.16" }
%"struct.std::_Vector_base.16" = type { %"struct.std::_Vector_base<OpenSubdiv::v3_6_0::Vtr::internal::Level::FTag, std::allocator<OpenSubdiv::v3_6_0::Vtr::internal::Level::FTag>>::_Vector_impl" }
%"struct.std::_Vector_base<OpenSubdiv::v3_6_0::Vtr::internal::Level::FTag, std::allocator<OpenSubdiv::v3_6_0::Vtr::internal::Level::FTag>>::_Vector_impl" = type { %"struct.std::_Vector_base<OpenSubdiv::v3_6_0::Vtr::internal::Level::FTag, std::allocator<OpenSubdiv::v3_6_0::Vtr::internal::Level::FTag>>::_Vector_impl_data" }
%"struct.std::_Vector_base<OpenSubdiv::v3_6_0::Vtr::internal::Level::FTag, std::allocator<OpenSubdiv::v3_6_0::Vtr::internal::Level::FTag>>::_Vector_impl_data" = type { ptr, ptr, ptr }
%"class.std::vector.30" = type { %"struct.std::_Vector_base.31" }
%"struct.std::_Vector_base.31" = type { %"struct.std::_Vector_base<OpenSubdiv::v3_6_0::Vtr::internal::Level::ETag, std::allocator<OpenSubdiv::v3_6_0::Vtr::internal::Level::ETag>>::_Vector_impl" }
%"struct.std::_Vector_base<OpenSubdiv::v3_6_0::Vtr::internal::Level::ETag, std::allocator<OpenSubdiv::v3_6_0::Vtr::internal::Level::ETag>>::_Vector_impl" = type { %"struct.std::_Vector_base<OpenSubdiv::v3_6_0::Vtr::internal::Level::ETag, std::allocator<OpenSubdiv::v3_6_0::Vtr::internal::Level::ETag>>::_Vector_impl_data" }
%"struct.std::_Vector_base<OpenSubdiv::v3_6_0::Vtr::internal::Level::ETag, std::allocator<OpenSubdiv::v3_6_0::Vtr::internal::Level::ETag>>::_Vector_impl_data" = type { ptr, ptr, ptr }
%"class.std::vector.20" = type { %"struct.std::_Vector_base.21" }
%"struct.std::_Vector_base.21" = type { %"struct.std::_Vector_base<unsigned short, std::allocator<unsigned short>>::_Vector_impl" }
%"struct.std::_Vector_base<unsigned short, std::allocator<unsigned short>>::_Vector_impl" = type { %"struct.std::_Vector_base<unsigned short, std::allocator<unsigned short>>::_Vector_impl_data" }
%"struct.std::_Vector_base<unsigned short, std::allocator<unsigned short>>::_Vector_impl_data" = type { ptr, ptr, ptr }
%"class.std::vector.25" = type { %"struct.std::_Vector_base.26" }
%"struct.std::_Vector_base.26" = type { %"struct.std::_Vector_base<float, std::allocator<float>>::_Vector_impl" }
%"struct.std::_Vector_base<float, std::allocator<float>>::_Vector_impl" = type { %"struct.std::_Vector_base<float, std::allocator<float>>::_Vector_impl_data" }
%"struct.std::_Vector_base<float, std::allocator<float>>::_Vector_impl_data" = type { ptr, ptr, ptr }
%"class.std::vector.35" = type { %"struct.std::_Vector_base.36" }
%"struct.std::_Vector_base.36" = type { %"struct.std::_Vector_base<OpenSubdiv::v3_6_0::Vtr::internal::Level::VTag, std::allocator<OpenSubdiv::v3_6_0::Vtr::internal::Level::VTag>>::_Vector_impl" }
%"struct.std::_Vector_base<OpenSubdiv::v3_6_0::Vtr::internal::Level::VTag, std::allocator<OpenSubdiv::v3_6_0::Vtr::internal::Level::VTag>>::_Vector_impl" = type { %"struct.std::_Vector_base<OpenSubdiv::v3_6_0::Vtr::internal::Level::VTag, std::allocator<OpenSubdiv::v3_6_0::Vtr::internal::Level::VTag>>::_Vector_impl_data" }
%"struct.std::_Vector_base<OpenSubdiv::v3_6_0::Vtr::internal::Level::VTag, std::allocator<OpenSubdiv::v3_6_0::Vtr::internal::Level::VTag>>::_Vector_impl_data" = type { ptr, ptr, ptr }
%"class.std::vector.40" = type { %"struct.std::_Vector_base.41" }
%"struct.std::_Vector_base.41" = type { %"struct.std::_Vector_base<OpenSubdiv::v3_6_0::Vtr::internal::FVarLevel *, std::allocator<OpenSubdiv::v3_6_0::Vtr::internal::FVarLevel *>>::_Vector_impl" }
%"struct.std::_Vector_base<OpenSubdiv::v3_6_0::Vtr::internal::FVarLevel *, std::allocator<OpenSubdiv::v3_6_0::Vtr::internal::FVarLevel *>>::_Vector_impl" = type { %"struct.std::_Vector_base<OpenSubdiv::v3_6_0::Vtr::internal::FVarLevel *, std::allocator<OpenSubdiv::v3_6_0::Vtr::internal::FVarLevel *>>::_Vector_impl_data" }
%"struct.std::_Vector_base<OpenSubdiv::v3_6_0::Vtr::internal::FVarLevel *, std::allocator<OpenSubdiv::v3_6_0::Vtr::internal::FVarLevel *>>::_Vector_impl_data" = type { ptr, ptr, ptr }
%"struct.OpenSubdiv::v3_6_0::Vtr::internal::Refinement::SparseTag" = type { i8 }

; Function Attrs: mustprogress nounwind uwtable
define internal void @_ZN10OpenSubdiv6v3_6_03Vtr8internal12_GLOBAL__N_123markSparseIndexSelectedERi(ptr noundef nonnull align 4 dereferenceable(4) %0) #0 {
  %2 = alloca ptr, align 8
  store ptr %0, ptr %2, align 8
  %3 = load ptr, ptr %2, align 8
  store i32 2, ptr %3, align 4
  ret void
}

; Function Attrs: mustprogress nounwind uwtable
define linkonce_odr noundef nonnull align 4 dereferenceable(4) ptr @_ZNSt6vectorIiSaIiEEixEm(ptr noundef nonnull align 8 dereferenceable(24) %0, i64 noundef %1) #0 comdat align 2 {
  %3 = alloca ptr, align 8
  %4 = alloca i64, align 8
  store ptr %0, ptr %3, align 8
  store i64 %1, ptr %4, align 8
  %5 = load ptr, ptr %3, align 8
  %6 = getelementptr inbounds nuw %"struct.std::_Vector_base", ptr %5, i32 0, i32 0
  %7 = getelementptr inbounds nuw %"struct.std::_Vector_base<int, std::allocator<int>>::_Vector_impl_data", ptr %6, i32 0, i32 0
  %8 = load ptr, ptr %7, align 8
  %9 = load i64, ptr %4, align 8
  %10 = getelementptr inbounds i32, ptr %8, i64 %9
  ret ptr %10
}

; Function Attrs: mustprogress nounwind uwtable
define linkonce_odr noundef nonnull align 1 dereferenceable(1) ptr @_ZNSt6vectorIN10OpenSubdiv6v3_6_03Vtr8internal10Refinement9SparseTagESaIS5_EEixEm(ptr noundef nonnull align 8 dereferenceable(24) %0, i64 noundef %1) #0 comdat align 2 {
  %3 = alloca ptr, align 8
  %4 = alloca i64, align 8
  store ptr %0, ptr %3, align 8
  store i64 %1, ptr %4, align 8
  %5 = load ptr, ptr %3, align 8
  %6 = getelementptr inbounds nuw %"struct.std::_Vector_base.6", ptr %5, i32 0, i32 0
  %7 = getelementptr inbounds nuw %"struct.std::_Vector_base<OpenSubdiv::v3_6_0::Vtr::internal::Refinement::SparseTag, std::allocator<OpenSubdiv::v3_6_0::Vtr::internal::Refinement::SparseTag>>::_Vector_impl_data", ptr %6, i32 0, i32 0
  %8 = load ptr, ptr %7, align 8
  %9 = load i64, ptr %4, align 8
  %10 = getelementptr inbounds %"struct.OpenSubdiv::v3_6_0::Vtr::internal::Refinement::SparseTag", ptr %8, i64 %9
  ret ptr %10
}

; Function Attrs: mustprogress nounwind uwtable
define linkonce_odr noundef i32 @_ZNK10OpenSubdiv6v3_6_03Vtr8internal5Level14getNumVerticesEv(ptr noundef nonnull align 8 dereferenceable(480) %0) #0 comdat align 2 {
  %2 = alloca ptr, align 8
  store ptr %0, ptr %2, align 8
  %3 = load ptr, ptr %2, align 8
  %4 = getelementptr inbounds nuw %"class.OpenSubdiv::v3_6_0::Vtr::internal::Level", ptr %3, i32 0, i32 2
  %5 = load i32, ptr %4, align 8
  ret i32 %5
}

; Function Attrs: mustprogress nounwind uwtable
define linkonce_odr noundef nonnull align 8 dereferenceable(480) ptr @_ZNK10OpenSubdiv6v3_6_03Vtr8internal10Refinement6parentEv(ptr noundef nonnull align 8 dereferenceable(504) %0) #0 comdat align 2 {
  %2 = alloca ptr, align 8
  store ptr %0, ptr %2, align 8
  %3 = load ptr, ptr %2, align 8
  %4 = getelementptr inbounds nuw %"class.OpenSubdiv::v3_6_0::Vtr::internal::Refinement", ptr %3, i32 0, i32 1
  %5 = load ptr, ptr %4, align 8
  ret ptr %5
}

; Function Attrs: mustprogress uwtable
define void @_ZN10OpenSubdiv6v3_6_03Vtr8internal10Refinement24markSparseVertexChildrenEv(ptr noundef nonnull align 8 dereferenceable(504) %0) #1 align 2 {
  %2 = alloca ptr, align 8
  %3 = alloca i32, align 4
  store ptr %0, ptr %2, align 8
  %4 = load ptr, ptr %2, align 8
  store i32 0, ptr %3, align 4
  br label %5

5:                                                ; preds = %24, %1
  %6 = load i32, ptr %3, align 4
  %7 = call noundef nonnull align 8 dereferenceable(480) ptr @_ZNK10OpenSubdiv6v3_6_03Vtr8internal10Refinement6parentEv(ptr noundef nonnull align 8 dereferenceable(504) %4)
  %8 = call noundef i32 @_ZNK10OpenSubdiv6v3_6_03Vtr8internal5Level14getNumVerticesEv(ptr noundef nonnull align 8 dereferenceable(480) %7)
  %9 = icmp slt i32 %6, %8
  br i1 %9, label %10, label %27

10:                                               ; preds = %5
  %11 = getelementptr inbounds nuw %"class.OpenSubdiv::v3_6_0::Vtr::internal::Refinement", ptr %4, i32 0, i32 36
  %12 = load i32, ptr %3, align 4
  %13 = sext i32 %12 to i64
  %14 = call noundef nonnull align 1 dereferenceable(1) ptr @_ZNSt6vectorIN10OpenSubdiv6v3_6_03Vtr8internal10Refinement9SparseTagESaIS5_EEixEm(ptr noundef nonnull align 8 dereferenceable(24) %11, i64 noundef %13) #12
  %15 = load i8, ptr %14, align 1
  %16 = and i8 %15, 1
  %17 = icmp ne i8 %16, 0
  br i1 %17, label %18, label %23

18:                                               ; preds = %10
  %19 = getelementptr inbounds nuw %"class.OpenSubdiv::v3_6_0::Vtr::internal::Refinement", ptr %4, i32 0, i32 27
  %20 = load i32, ptr %3, align 4
  %21 = sext i32 %20 to i64
  %22 = call noundef nonnull align 4 dereferenceable(4) ptr @_ZNSt6vectorIiSaIiEEixEm(ptr noundef nonnull align 8 dereferenceable(24) %19, i64 noundef %21) #12
  call void @_ZN10OpenSubdiv6v3_6_03Vtr8internal12_GLOBAL__N_123markSparseIndexSelectedERi(ptr noundef nonnull align 4 dereferenceable(4) %22)
  br label %23

23:                                               ; preds = %18, %10
  br label %24

24:                                               ; preds = %23
  %25 = load i32, ptr %3, align 4
  %26 = add nsw i32 %25, 1
  store i32 %26, ptr %3, align 4
  br label %5, !llvm.loop !65

27:                                               ; preds = %5
  ret void
}

; Function Attrs: mustprogress uwtable
define void @_ZN10OpenSubdiv6v3_6_03Vtr8internal10Refinement31markSparseChildComponentIndicesEv(ptr noundef nonnull align 8 dereferenceable(504) %0) #1 align 2 {
  %2 = alloca ptr, align 8
  store ptr %0, ptr %2, align 8
  %3 = load ptr, ptr %2, align 8
  call void @_ZN10OpenSubdiv6v3_6_03Vtr8internal10Refinement24markSparseVertexChildrenEv(ptr noundef nonnull align 8 dereferenceable(504) %3)
  call void @_ZN10OpenSubdiv6v3_6_03Vtr8internal10Refinement22markSparseEdgeChildrenEv(ptr noundef nonnull align 8 dereferenceable(504) %3)
  %4 = load ptr, ptr %3, align 8
  %5 = getelementptr inbounds ptr, ptr %4, i64 3
  %6 = load ptr, ptr %5, align 8
  call void %6(ptr noundef nonnull align 8 dereferenceable(504) %3)
  ret void
}