; Function Attrs: mustprogress uwtable
define void @_ZN10OpenSubdiv6v3_6_03Vtr8internal10Refinement31markSparseChildComponentIndicesEv(ptr noundef nonnull align 8 dereferenceable(504) %0) local_unnamed_addr #7 align 2 {
  %2 = getelementptr inbounds nuw i8, ptr %0, i64 8
  %3 = load ptr, ptr %2, align 8
  %4 = getelementptr inbounds nuw i8, ptr %3, i64 8
  %5 = load i32, ptr %4, align 8
  %6 = icmp sgt i32 %5, 0
  br i1 %6, label %.lr.ph.i, label %_ZN10OpenSubdiv6v3_6_03Vtr8internal10Refinement24markSparseVertexChildrenEv.exit

.lr.ph.i:                                         ; preds = %1
  %7 = getelementptr inbounds nuw i8, ptr %0, i64 456
  %8 = getelementptr inbounds nuw i8, ptr %0, i64 240
  br label %9

9:                                                ; preds = %18, %.lr.ph.i
  %10 = phi ptr [ %3, %.lr.ph.i ], [ %19, %18 ]
  %indvars.iv.i = phi i64 [ 0, %.lr.ph.i ], [ %indvars.iv.next.i, %18 ]
  %11 = load ptr, ptr %7, align 8
  %12 = getelementptr inbounds %"struct.OpenSubdiv::v3_6_0::Vtr::internal::Refinement::SparseTag", ptr %11, i64 %indvars.iv.i
  %13 = load i8, ptr %12, align 1
  %14 = and i8 %13, 1
  %.not.i = icmp eq i8 %14, 0
  br i1 %.not.i, label %18, label %15

15:                                               ; preds = %9
  %16 = load ptr, ptr %8, align 8
  %17 = getelementptr inbounds i32, ptr %16, i64 %indvars.iv.i
  store i32 2, ptr %17, align 4
  %.pre.i = load ptr, ptr %2, align 8
  br label %18

18:                                               ; preds = %15, %9
  %19 = phi ptr [ %10, %9 ], [ %.pre.i, %15 ]
  %indvars.iv.next.i = add nuw nsw i64 %indvars.iv.i, 1
  %20 = getelementptr inbounds nuw i8, ptr %19, i64 8
  %21 = load i32, ptr %20, align 8
  %22 = sext i32 %21 to i64
  %23 = icmp slt i64 %indvars.iv.next.i, %22
  br i1 %23, label %9, label %_ZN10OpenSubdiv6v3_6_03Vtr8internal10Refinement24markSparseVertexChildrenEv.exit, !llvm.loop !14

_ZN10OpenSubdiv6v3_6_03Vtr8internal10Refinement24markSparseVertexChildrenEv.exit: ; preds = %18, %1
  tail call void @_ZN10OpenSubdiv6v3_6_03Vtr8internal10Refinement22markSparseEdgeChildrenEv(ptr noundef nonnull align 8 dereferenceable(504) %0)
  %24 = load ptr, ptr %0, align 8
  %25 = getelementptr inbounds i8, ptr %24, i64 24
  %26 = load ptr, ptr %25, align 8
  tail call void %26(ptr noundef nonnull align 8 dereferenceable(504) %0)
  ret void
}